(dp1
S'files'
p2
(dp3
S'monasca_dispatcher_sample_dispatcher'
p4
(dp5
S'hash'
p6
S'\xda^lsAz\xd6c\xd6\xc5\x024\xc02\xfbA'
p7
sS'index'
p8
(dp9
S'html_filename'
p10
S'monasca_dispatcher_sample_dispatcher.html'
p11
sS'nums'
p12
ccopy_reg
_reconstructor
p13
(ccoverage.results
Numbers
p14
c__builtin__
object
p15
NtRp16
(dp17
S'n_files'
p18
I1
sS'n_excluded'
p19
I0
sS'n_partial_branches'
p20
I0
sS'n_branches'
p21
I0
sS'n_missing'
p22
I25
sS'n_missing_branches'
p23
I0
sS'n_statements'
p24
I25
sbsS'name'
p25
S'monasca/dispatcher/sample_dispatcher'
p26
sssS'monasca_common_kafka_conn'
p27
(dp28
g6
S'p\x1c\x82CzM\xb5\xa6\x1dd\xdb\xc1\xd4\xc6p\xf0'
p29
sg8
(dp30
S'html_filename'
p31
S'monasca_common_kafka_conn.html'
p32
sS'nums'
p33
g13
(g14
g15
NtRp34
(dp35
g18
I1
sg19
I0
sg20
I2
sg21
I32
sg22
I87
sg23
I30
sg24
I126
sbsS'name'
p36
S'monasca/common/kafka_conn'
p37
sssS'monasca_middleware_login'
p38
(dp39
g6
S'\xb5\x05\xd9+\x1eU\xd9\xfc\x9c\xc1\xa1\x8a\xbaM\xff\xf9'
p40
sg8
(dp41
g10
S'monasca_middleware_login.html'
p42
sg12
g13
(g14
g15
NtRp43
(dp44
g18
I1
sg19
I0
sg20
I0
sg21
I2
sg22
I15
sg23
I2
sg24
I15
sbsg25
S'monasca/middleware/login'
p45
sssS'monasca_microservice_server'
p46
(dp47
g6
S'\xad1\x8e=\xdb\xd9&7\xd0;\xb6\xd3\xcd\xdf\xafM'
p48
sg8
(dp49
g10
S'monasca_microservice_server.html'
p50
sg12
g13
(g14
g15
NtRp51
(dp52
g18
I1
sg19
I0
sg20
I0
sg21
I4
sg22
I22
sg23
I4
sg24
I22
sbsg25
S'monasca/microservice/server'
p53
sssS'monasca_common_resource_api'
p54
(dp55
g6
S'\x8bh7Fk<\xe8O\xa9Q[(\x84D\\f'
p56
sg8
(dp57
g10
S'monasca_common_resource_api.html'
p58
sg12
g13
(g14
g15
NtRp59
(dp60
g18
I1
sg19
I0
sg20
I2
sg21
I17
sg22
I24
sg23
I15
sg24
I40
sbsg25
S'monasca/common/resource_api'
p61
sssS'monasca_v2_elasticsearch_metrics'
p62
(dp63
g6
S'\xf4\x87\xb0N\x8b\x96\xb2\x88\xe74\xf2O\xd3\xfd\x06\xbd'
p64
sg8
(dp65
g10
S'monasca_v2_elasticsearch_metrics.html'
p66
sg12
g13
(g14
g15
NtRp67
(dp68
g18
I1
sg19
I0
sg20
I0
sg21
I62
sg22
I229
sg23
I62
sg24
I229
sbsg25
S'monasca/v2/elasticsearch/metrics'
p69
sssS'monasca_microservice_metrics_fixer'
p70
(dp71
g6
S"Y\x08\xe2\xca\xca~\xf6\xce\xc1'\x92p\xc4IN\xf3"
p72
sg8
(dp73
g10
S'monasca_microservice_metrics_fixer.html'
p74
sg12
g13
(g14
g15
NtRp75
(dp76
g18
I1
sg19
I0
sg20
I1
sg21
I8
sg22
I4
sg23
I1
sg24
I29
sbsg25
S'monasca/microservice/metrics_fixer'
p77
sssS'monasca_microservice_fixed_strategy'
p78
(dp79
g6
S'\xdc\xe9p\xc2\x1a\x85;\xce\x92\x8b\xd2W\x08\xbd$\xc9'
p80
sg8
(dp81
g10
S'monasca_microservice_fixed_strategy.html'
p82
sg12
g13
(g14
g15
NtRp83
(dp84
g18
I1
sg19
I0
sg20
I0
sg21
I0
sg22
I0
sg23
I0
sg24
I11
sbsg25
S'monasca/microservice/fixed_strategy'
p85
sssS'monasca_v2_elasticsearch_versions'
p86
(dp87
g6
S"H\n\x15\xdb\r\xc9'(\x81\x1av$\x03y\x17["
p88
sg8
(dp89
g10
S'monasca_v2_elasticsearch_versions.html'
p90
sg12
g13
(g14
g15
NtRp91
(dp92
g18
I1
sg19
I0
sg20
I1
sg21
I2
sg22
I4
sg23
I1
sg24
I23
sbsg25
S'monasca/v2/elasticsearch/versions'
p93
sssS'monasca_v2_elasticsearch_alarmdefinitions'
p94
(dp95
g6
S'\x9cy\xb8""\xc6\xeb\x84\x0f~\xb9#]cj\xdc'
p96
sg8
(dp97
S'html_filename'
p98
S'monasca_v2_elasticsearch_alarmdefinitions.html'
p99
sS'nums'
p100
g13
(g14
g15
NtRp101
(dp102
g18
I1
sg19
I0
sg20
I10
sg21
I40
sg22
I7
sg23
I10
sg24
I178
sbsS'name'
p103
S'monasca/v2/elasticsearch/alarmdefinitions'
p104
sssS'monasca_middleware___init__'
p105
(dp106
g6
S'\x19g\xdfM\x1a\x019\xaf\x1baIeR\xe5u\xa7'
p107
sg8
(dp108
g10
S'monasca_middleware___init__.html'
p109
sg12
g13
(g14
g15
NtRp110
(dp111
g18
I1
sg19
I0
sg20
I0
sg21
I0
sg22
I0
sg23
I0
sg24
I0
sbsg25
S'monasca/middleware/__init__'
p112
sssS'monasca_common_alarm_expr_validator'
p113
(dp114
g6
S'\xdb\xb9\xd9\xa5\x9c*\xa8\x93\xd7\xd9\xde\xcb*\xa4k*'
p115
sg8
(dp116
S'html_filename'
p117
S'monasca_common_alarm_expr_validator.html'
p118
sS'nums'
p119
g13
(g14
g15
NtRp120
(dp121
g18
I1
sg19
I0
sg20
I0
sg21
I20
sg22
I0
sg23
I0
sg24
I37
sbsS'name'
p122
S'monasca/common/alarm_expr_validator'
p123
sssS'monasca_microservice_threshold_engine'
p124
(dp125
g6
S'\x95xZ\xadxv\x11\xdf\x9dU\x93(e$\xda\x92'
p126
sg8
(dp127
g10
S'monasca_microservice_threshold_engine.html'
p128
sg12
g13
(g14
g15
NtRp129
(dp130
g18
I1
sg19
I0
sg20
I16
sg21
I68
sg22
I51
sg23
I22
sg24
I193
sbsg25
S'monasca/microservice/threshold_engine'
p131
sssS'monasca_v2___init__'
p132
(dp133
g6
S'\x19g\xdfM\x1a\x019\xaf\x1baIeR\xe5u\xa7'
p134
sg8
(dp135
g10
S'monasca_v2___init__.html'
p136
sg12
g13
(g14
g15
NtRp137
(dp138
g18
I1
sg19
I0
sg20
I0
sg21
I0
sg22
I0
sg23
I0
sg24
I0
sbsg25
S'monasca/v2/__init__'
p139
sssS'monasca_api___init__'
p140
(dp141
g6
S'\x19g\xdfM\x1a\x019\xaf\x1baIeR\xe5u\xa7'
p142
sg8
(dp143
g10
S'monasca_api___init__.html'
p144
sg12
g13
(g14
g15
NtRp145
(dp146
g18
I1
sg19
I0
sg20
I0
sg21
I0
sg22
I0
sg23
I0
sg24
I0
sbsg25
S'monasca/api/__init__'
p147
sssS'monasca_microservice_es_persister'
p148
(dp149
g6
S'\x18p\xfa|!g\xa6\x0f\xf1\xc1\xa7j\x94V\x99Z'
p150
sg8
(dp151
g10
S'monasca_microservice_es_persister.html'
p152
sg12
g13
(g14
g15
NtRp153
(dp154
g18
I1
sg19
I0
sg20
I0
sg21
I16
sg22
I44
sg23
I14
sg24
I44
sbsg25
S'monasca/microservice/es_persister'
p155
sssS'monasca_dispatcher___init__'
p156
(dp157
g6
S'n\xa1DD\xbf\x91r\xa8Z\xefA\x16\x07\xc1\x8a\xe0'
p158
sg8
(dp159
g10
S'monasca_dispatcher___init__.html'
p160
sg12
g13
(g14
g15
NtRp161
(dp162
g18
I1
sg19
I0
sg20
I1
sg21
I4
sg22
I1
sg23
I1
sg24
I7
sbsg25
S'monasca/dispatcher/__init__'
p163
sssS'monasca_microservice_timed_strategy'
p164
(dp165
g6
S'\x81\x93\x07\x00\xb4\x1a\x93\xc3\nU\xd2\xb8D\xfcJ0'
p166
sg8
(dp167
g10
S'monasca_microservice_timed_strategy.html'
p168
sg12
g13
(g14
g15
NtRp169
(dp170
g18
I1
sg19
I0
sg20
I1
sg21
I18
sg22
I4
sg23
I1
sg24
I48
sbsg25
S'monasca/microservice/timed_strategy'
p171
sssS'monasca_v2_elasticsearch_notificationmethods'
p172
(dp173
g6
S'1\x8a\xdf\x0ei\xb5\xb8\xc72\x8a"!y\x9ee\xed'
p174
sg8
(dp175
g10
S'monasca_v2_elasticsearch_notificationmethods.html'
p176
sg12
g13
(g14
g15
NtRp177
(dp178
g18
I1
sg19
I0
sg20
I9
sg21
I40
sg22
I23
sg23
I25
sg24
I138
sbsg25
S'monasca/v2/elasticsearch/notificationmethods'
p179
sssS'monasca_common_alarm_expr_calculator'
p180
(dp181
g6
S'\xc3\x94\xb93\xe7\xb8\xb6\x8c\xda\xa2\xbcWjU\x1c\xe9'
p182
sg8
(dp183
g10
S'monasca_common_alarm_expr_calculator.html'
p184
sg12
g13
(g14
g15
NtRp185
(dp186
g18
I1
sg19
I0
sg20
I0
sg21
I34
sg22
I0
sg23
I0
sg24
I36
sbsg25
S'monasca/common/alarm_expr_calculator'
p187
sssS'monasca_common___init__'
p188
(dp189
g6
S'\x19g\xdfM\x1a\x019\xaf\x1baIeR\xe5u\xa7'
p190
sg8
(dp191
g10
S'monasca_common___init__.html'
p192
sg12
g13
(g14
g15
NtRp193
(dp194
g18
I1
sg19
I0
sg20
I0
sg21
I0
sg22
I0
sg23
I0
sg24
I0
sbsg25
S'monasca/common/__init__'
p195
sssS'monasca_service'
p196
(dp197
g6
S'\x1f#]P\xbf\x13\x88\x89s\xd7\x07\x8c\x81\x999\xa9'
p198
sg8
(dp199
g10
S'monasca_service.html'
p200
sg12
g13
(g14
g15
NtRp201
(dp202
g18
I1
sg19
I0
sg20
I0
sg21
I2
sg22
I16
sg23
I2
sg24
I16
sbsg25
S'monasca/service'
p203
sssS'monasca_microservice___init__'
p204
(dp205
g6
S'\x19g\xdfM\x1a\x019\xaf\x1baIeR\xe5u\xa7'
p206
sg8
(dp207
g10
S'monasca_microservice___init__.html'
p208
sg12
g13
(g14
g15
NtRp209
(dp210
g18
I1
sg19
I0
sg20
I0
sg21
I0
sg22
I0
sg23
I0
sg24
I0
sbsg25
S'monasca/microservice/__init__'
p211
sssS'monasca_common_es_conn'
p212
(dp213
g6
S'\xbcx\x18\xa2j\xaf\xdb\x0e\x16\xb2\xbe}\xda\t\xf9\x07'
p214
sg8
(dp215
g10
S'monasca_common_es_conn.html'
p216
sg12
g13
(g14
g15
NtRp217
(dp218
g18
I1
sg19
I0
sg20
I7
sg21
I18
sg22
I13
sg23
I9
sg24
I78
sbsg25
S'monasca/common/es_conn'
p219
sssS'monasca_api_monasca_api_v2'
p220
(dp221
g6
S'\x8b\xeb!\x14\xdd\x7f\xa1<*V\xd8\x92i*\xaf\xba'
p222
sg8
(dp223
g10
S'monasca_api_monasca_api_v2.html'
p224
sg12
g13
(g14
g15
NtRp225
(dp226
g18
I1
sg19
I0
sg20
I0
sg21
I0
sg22
I61
sg23
I0
sg24
I61
sbsg25
S'monasca/api/monasca_api_v2'
p227
sssS'monasca___init__'
p228
(dp229
g6
S'\x19g\xdfM\x1a\x019\xaf\x1baIeR\xe5u\xa7'
p230
sg8
(dp231
g10
S'monasca___init__.html'
p232
sg12
g13
(g14
g15
NtRp233
(dp234
g18
I1
sg19
I0
sg20
I0
sg21
I0
sg22
I0
sg23
I0
sg24
I0
sbsg25
S'monasca/__init__'
p235
sssS'monasca_common_namespace'
p236
(dp237
g6
S'\x82\x9c\xf3\xce3b\xa6\xbcAv\xd56\xf3dQ\x80'
p238
sg8
(dp239
g10
S'monasca_common_namespace.html'
p240
sg12
g13
(g14
g15
NtRp241
(dp242
g18
I1
sg19
I0
sg20
I0
sg21
I0
sg22
I0
sg23
I0
sg24
I4
sbsg25
S'monasca/common/namespace'
p243
sssS'monasca_microservice_notification_engine'
p244
(dp245
g6
S'\x1f\xcd\xf1\x11\xf1}\xe54\xa0CV\x9dP\xf3er'
p246
sg8
(dp247
g10
S'monasca_microservice_notification_engine.html'
p248
sg12
g13
(g14
g15
NtRp249
(dp250
g18
I1
sg19
I0
sg20
I0
sg21
I8
sg22
I36
sg23
I6
sg24
I36
sbsg25
S'monasca/microservice/notification_engine'
p251
sssS'monasca_middleware_inspector'
p252
(dp253
g6
S'\xdaE\x8a@0\x89Z&\x9dE\x01\x8fL\xfd\x94L'
p254
sg8
(dp255
g10
S'monasca_middleware_inspector.html'
p256
sg12
g13
(g14
g15
NtRp257
(dp258
g18
I1
sg19
I0
sg20
I0
sg21
I0
sg22
I12
sg23
I0
sg24
I12
sbsg25
S'monasca/middleware/inspector'
p259
sssS'monasca_api_server'
p260
(dp261
g6
S')\x1a\xe0\x96\xa5m\xe2\xa7b\xf2\x90\x86gv\xa3\x9c'
p262
sg8
(dp263
g10
S'monasca_api_server.html'
p264
sg12
g13
(g14
g15
NtRp265
(dp266
g18
I1
sg19
I0
sg20
I0
sg21
I6
sg22
I29
sg23
I6
sg24
I29
sbsg25
S'monasca/api/server'
p267
sssS'monasca_v2_elasticsearch___init__'
p268
(dp269
g6
S'\x19g\xdfM\x1a\x019\xaf\x1baIeR\xe5u\xa7'
p270
sg8
(dp271
g10
S'monasca_v2_elasticsearch___init__.html'
p272
sg12
g13
(g14
g15
NtRp273
(dp274
g18
I1
sg19
I0
sg20
I0
sg21
I0
sg22
I0
sg23
I0
sg24
I0
sbsg25
S'monasca/v2/elasticsearch/__init__'
p275
sssS'monasca_common_alarm_expr_parser'
p276
(dp277
g6
S'\xf7\n\x0f[\xce-E\x99\x90Y\x850-"\xc1\xcc'
p278
sg8
(dp279
g10
S'monasca_common_alarm_expr_parser.html'
p280
sg12
g13
(g14
g15
NtRp281
(dp282
g18
I1
sg19
I0
sg20
I3
sg21
I36
sg22
I4
sg23
I3
sg24
I158
sbsg25
S'monasca/common/alarm_expr_parser'
p283
sssS'monasca_v2_elasticsearch_alarms'
p284
(dp285
g6
S'\x1bz\xba\x9c\xcc\xea\x81\x1a\xaa\xabA[aW\xe6\x95'
p286
sg8
(dp287
S'html_filename'
p288
S'monasca_v2_elasticsearch_alarms.html'
p289
sS'nums'
p290
g13
(g14
g15
NtRp291
(dp292
g20
I6
sg19
I0
sg24
I100
sg22
I6
sg23
I6
sg18
I1
sg21
I16
sbsS'name'
p293
S'monasca/v2/elasticsearch/alarms'
p294
sssS'monasca_microservice_threshold_processor'
p295
(dp296
g6
S'\x1aH\xbe\x86\xb0k\xec6\x95\xf7\x98\xe6\x01\x129\xac'
p297
sg8
(dp298
g10
S'monasca_microservice_threshold_processor.html'
p299
sg12
g13
(g14
g15
NtRp300
(dp301
g18
I1
sg19
I0
sg20
I2
sg21
I67
sg22
I4
sg23
I2
sg24
I201
sbsg25
S'monasca/microservice/threshold_processor'
p302
sssS'monasca_microservice_notification_processor'
p303
(dp304
g6
S'\x97\xab\x9b\xaa5\xf2\x0f\xc0\xcb\x14\xb6\xef,\xfa\xb9\xd4'
p305
sg8
(dp306
g10
S'monasca_microservice_notification_processor.html'
p307
sg12
g13
(g14
g15
NtRp308
(dp309
g18
I1
sg19
I0
sg20
I6
sg21
I20
sg22
I12
sg23
I10
sg24
I52
sbsg25
S'monasca/microservice/notification_processor'
p310
sssS'monasca_common_email_sender'
p311
(dp312
g6
S'\xdcd,A\xd9\xc9\xf2\xea\xa1\xc7\xa9\xe4e<\xb7k'
p313
sg8
(dp314
g10
S'monasca_common_email_sender.html'
p315
sg12
g13
(g14
g15
NtRp316
(dp317
g18
I1
sg19
I0
sg20
I1
sg21
I2
sg22
I4
sg23
I1
sg24
I43
sbsg25
S'monasca/common/email_sender'
p318
sssS'monasca_middleware_metric_validator'
p319
(dp320
g6
S'\xdav\xc2u\xc6M\x0e-AL\xf4\xe7\x8e\x0e<\x98'
p321
sg8
(dp322
g10
S'monasca_middleware_metric_validator.html'
p323
sg12
g13
(g14
g15
NtRp324
(dp325
g18
I1
sg19
I0
sg20
I0
sg21
I14
sg22
I40
sg23
I14
sg24
I40
sbsg25
S'monasca/middleware/metric_validator'
p326
ssssS'settings'
p327
S'\xb8[k\x1a\x7fAj\xdc4\x08\xce\xdd\x9a\x94U\x82'
p328
sS'format'
p329
I1
sS'version'
p330
S'3.7.1'
p331
s.